target datalayout = "e-m:e-p270:32:32-p271:32:32-p272:64:64-i64:64-i128:128-f80:128-n8:16:32:64-S128"
target triple = "x86_64-pc-linux-gnu"

%struct.t_bb = type { float, float, float, float, float, float, float, float, i8, i32, i32, i32, i32, i32, i32, i32, i32, i32, i32, [32 x i8] }

@.str.1 = private unnamed_addr constant [2 x i8] c"\0A\00", align 1
@.str.2 = private unnamed_addr constant [5 x i8] c"%10g\00", align 1
@.str.3 = private unnamed_addr constant [12 x i8] c"%10g  %10g\0A\00", align 1

; Function Attrs: mustprogress nounwind uwtable
define void @_Z8av_hblenP8_IO_FILES0_S0_S0_S0_S0_fiP4t_bb(ptr noundef %0, ptr noundef %1, ptr noundef %2, ptr noundef %3, ptr noundef %4, ptr noundef %5, float noundef %6, i32 noundef %7, ptr noundef %8) #2 {
  %10 = alloca ptr, align 8
  %11 = alloca ptr, align 8
  %12 = alloca ptr, align 8
  %13 = alloca ptr, align 8
  %14 = alloca ptr, align 8
  %15 = alloca ptr, align 8
  %16 = alloca float, align 4
  %17 = alloca i32, align 4
  %18 = alloca ptr, align 8
  %19 = alloca i32, align 4
  %20 = alloca i32, align 4
  %21 = alloca i32, align 4
  %22 = alloca i32, align 4
  %23 = alloca float, align 4
  %24 = alloca float, align 4
  %25 = alloca float, align 4
  store ptr %0, ptr %10, align 8, !tbaa !30
  store ptr %1, ptr %11, align 8, !tbaa !30
  store ptr %2, ptr %12, align 8, !tbaa !30
  store ptr %3, ptr %13, align 8, !tbaa !30
  store ptr %4, ptr %14, align 8, !tbaa !30
  store ptr %5, ptr %15, align 8, !tbaa !30
  store float %6, ptr %16, align 4, !tbaa !11
  store i32 %7, ptr %17, align 4, !tbaa !4
  store ptr %8, ptr %18, align 8, !tbaa !8
  call void @llvm.lifetime.start.p0(i64 4, ptr %19) #14
  call void @llvm.lifetime.start.p0(i64 4, ptr %20) #14
  store i32 0, ptr %20, align 4, !tbaa !4
  call void @llvm.lifetime.start.p0(i64 4, ptr %21) #14
  store i32 0, ptr %21, align 4, !tbaa !4
  call void @llvm.lifetime.start.p0(i64 4, ptr %22) #14
  store i32 0, ptr %22, align 4, !tbaa !4
  call void @llvm.lifetime.start.p0(i64 4, ptr %23) #14
  store float 0.000000e+00, ptr %23, align 4, !tbaa !11
  call void @llvm.lifetime.start.p0(i64 4, ptr %24) #14
  store float 0.000000e+00, ptr %24, align 4, !tbaa !11
  call void @llvm.lifetime.start.p0(i64 4, ptr %25) #14
  store float 0.000000e+00, ptr %25, align 4, !tbaa !11
  store i32 0, ptr %19, align 4, !tbaa !4
  br label %26

26:                                               ; preds = %110, %9
  %27 = load i32, ptr %19, align 4, !tbaa !4
  %28 = load i32, ptr %17, align 4, !tbaa !4
  %29 = sub nsw i32 %28, 3
  %30 = icmp slt i32 %27, %29
  br i1 %30, label %31, label %113

31:                                               ; preds = %26
  %32 = load ptr, ptr %18, align 8, !tbaa !8
  %33 = load i32, ptr %19, align 4, !tbaa !4
  %34 = sext i32 %33 to i64
  %35 = getelementptr inbounds %struct.t_bb, ptr %32, i64 %34
  %36 = getelementptr inbounds nuw %struct.t_bb, ptr %35, i32 0, i32 8
  %37 = load i8, ptr %36, align 4, !tbaa !46, !range !47, !noundef !48
  %38 = trunc i8 %37 to i1
  br i1 %38, label %39, label %109

39:                                               ; preds = %31
  %40 = load ptr, ptr %11, align 8, !tbaa !30
  %41 = load ptr, ptr %18, align 8, !tbaa !8
  %42 = load i32, ptr %19, align 4, !tbaa !4
  %43 = sext i32 %42 to i64
  %44 = getelementptr inbounds %struct.t_bb, ptr %41, i64 %43
  %45 = getelementptr inbounds nuw %struct.t_bb, ptr %44, i32 0, i32 4
  %46 = load float, ptr %45, align 4, !tbaa !49
  %47 = fpext float %46 to double
  %48 = call i32 (ptr, ptr, ...) @fprintf(ptr noundef %40, ptr noundef @.str.2, double noundef %47) #14
  %49 = load i32, ptr %20, align 4, !tbaa !4
  %50 = add nsw i32 %49, 1
  store i32 %50, ptr %20, align 4, !tbaa !4
  %51 = load ptr, ptr %18, align 8, !tbaa !8
  %52 = load i32, ptr %19, align 4, !tbaa !4
  %53 = sext i32 %52 to i64
  %54 = getelementptr inbounds %struct.t_bb, ptr %51, i64 %53
  %55 = getelementptr inbounds nuw %struct.t_bb, ptr %54, i32 0, i32 4
  %56 = load float, ptr %55, align 4, !tbaa !49
  %57 = load float, ptr %23, align 4, !tbaa !11
  %58 = fadd float %57, %56
  store float %58, ptr %23, align 4, !tbaa !11
  %59 = load i32, ptr %19, align 4, !tbaa !4
  %60 = load i32, ptr %17, align 4, !tbaa !4
  %61 = sub nsw i32 %60, 4
  %62 = icmp slt i32 %59, %61
  br i1 %62, label %63, label %83

63:                                               ; preds = %39
  %64 = load ptr, ptr %13, align 8, !tbaa !30
  %65 = load ptr, ptr %18, align 8, !tbaa !8
  %66 = load i32, ptr %19, align 4, !tbaa !4
  %67 = sext i32 %66 to i64
  %68 = getelementptr inbounds %struct.t_bb, ptr %65, i64 %67
  %69 = getelementptr inbounds nuw %struct.t_bb, ptr %68, i32 0, i32 5
  %70 = load float, ptr %69, align 4, !tbaa !50
  %71 = fpext float %70 to double
  %72 = call i32 (ptr, ptr, ...) @fprintf(ptr noundef %64, ptr noundef @.str.2, double noundef %71) #14
  %73 = load i32, ptr %21, align 4, !tbaa !4
  %74 = add nsw i32 %73, 1
  store i32 %74, ptr %21, align 4, !tbaa !4
  %75 = load ptr, ptr %18, align 8, !tbaa !8
  %76 = load i32, ptr %19, align 4, !tbaa !4
  %77 = sext i32 %76 to i64
  %78 = getelementptr inbounds %struct.t_bb, ptr %75, i64 %77
  %79 = getelementptr inbounds nuw %struct.t_bb, ptr %78, i32 0, i32 5
  %80 = load float, ptr %79, align 4, !tbaa !50
  %81 = load float, ptr %24, align 4, !tbaa !11
  %82 = fadd float %81, %80
  store float %82, ptr %24, align 4, !tbaa !11
  br label %83

83:                                               ; preds = %63, %39
  %84 = load i32, ptr %19, align 4, !tbaa !4
  %85 = load i32, ptr %17, align 4, !tbaa !4
  %86 = sub nsw i32 %85, 5
  %87 = icmp slt i32 %84, %86
  br i1 %87, label %88, label %108

88:                                               ; preds = %83
  %89 = load ptr, ptr %15, align 8, !tbaa !30
  %90 = load ptr, ptr %18, align 8, !tbaa !8
  %91 = load i32, ptr %19, align 4, !tbaa !4
  %92 = sext i32 %91 to i64
  %93 = getelementptr inbounds %struct.t_bb, ptr %90, i64 %92
  %94 = getelementptr inbounds nuw %struct.t_bb, ptr %93, i32 0, i32 6
  %95 = load float, ptr %94, align 4, !tbaa !51
  %96 = fpext float %95 to double
  %97 = call i32 (ptr, ptr, ...) @fprintf(ptr noundef %89, ptr noundef @.str.2, double noundef %96) #14
  %98 = load i32, ptr %22, align 4, !tbaa !4
  %99 = add nsw i32 %98, 1
  store i32 %99, ptr %22, align 4, !tbaa !4
  %100 = load ptr, ptr %18, align 8, !tbaa !8
  %101 = load i32, ptr %19, align 4, !tbaa !4
  %102 = sext i32 %101 to i64
  %103 = getelementptr inbounds %struct.t_bb, ptr %100, i64 %102
  %104 = getelementptr inbounds nuw %struct.t_bb, ptr %103, i32 0, i32 6
  %105 = load float, ptr %104, align 4, !tbaa !51
  %106 = load float, ptr %25, align 4, !tbaa !11
  %107 = fadd float %106, %105
  store float %107, ptr %25, align 4, !tbaa !11
  br label %108

108:                                              ; preds = %88, %83
  br label %109

109:                                              ; preds = %108, %31
  br label %110

110:                                              ; preds = %109
  %111 = load i32, ptr %19, align 4, !tbaa !4
  %112 = add nsw i32 %111, 1
  store i32 %112, ptr %19, align 4, !tbaa !4
  br label %26, !llvm.loop !52

113:                                              ; preds = %26
  %114 = load ptr, ptr %10, align 8, !tbaa !30
  %115 = load float, ptr %16, align 4, !tbaa !11
  %116 = fpext float %115 to double
  %117 = load float, ptr %23, align 4, !tbaa !11
  %118 = load i32, ptr %20, align 4, !tbaa !4
  %119 = sitofp i32 %118 to float
  %120 = fdiv float %117, %119
  %121 = fpext float %120 to double
  %122 = call i32 (ptr, ptr, ...) @fprintf(ptr noundef %114, ptr noundef @.str.3, double noundef %116, double noundef %121) #14
  %123 = load ptr, ptr %12, align 8, !tbaa !30
  %124 = load float, ptr %16, align 4, !tbaa !11
  %125 = fpext float %124 to double
  %126 = load float, ptr %24, align 4, !tbaa !11
  %127 = load i32, ptr %21, align 4, !tbaa !4
  %128 = sitofp i32 %127 to float
  %129 = fdiv float %126, %128
  %130 = fpext float %129 to double
  %131 = call i32 (ptr, ptr, ...) @fprintf(ptr noundef %123, ptr noundef @.str.3, double noundef %125, double noundef %130) #14
  %132 = load ptr, ptr %14, align 8, !tbaa !30
  %133 = load float, ptr %16, align 4, !tbaa !11
  %134 = fpext float %133 to double
  %135 = load float, ptr %25, align 4, !tbaa !11
  %136 = load i32, ptr %22, align 4, !tbaa !4
  %137 = sitofp i32 %136 to float
  %138 = fdiv float %135, %137
  %139 = fpext float %138 to double
  %140 = call i32 (ptr, ptr, ...) @fprintf(ptr noundef %132, ptr noundef @.str.3, double noundef %134, double noundef %139) #14
  %141 = load ptr, ptr %11, align 8, !tbaa !30
  %142 = call i32 (ptr, ptr, ...) @fprintf(ptr noundef %141, ptr noundef @.str.1) #14
  %143 = load ptr, ptr %13, align 8, !tbaa !30
  %144 = call i32 (ptr, ptr, ...) @fprintf(ptr noundef %143, ptr noundef @.str.1) #14
  %145 = load ptr, ptr %15, align 8, !tbaa !30
  %146 = call i32 (ptr, ptr, ...) @fprintf(ptr noundef %145, ptr noundef @.str.1) #14
  call void @llvm.lifetime.end.p0(i64 4, ptr %25) #14
  call void @llvm.lifetime.end.p0(i64 4, ptr %24) #14
  call void @llvm.lifetime.end.p0(i64 4, ptr %23) #14
  call void @llvm.lifetime.end.p0(i64 4, ptr %22) #14
  call void @llvm.lifetime.end.p0(i64 4, ptr %21) #14
  call void @llvm.lifetime.end.p0(i64 4, ptr %20) #14
  call void @llvm.lifetime.end.p0(i64 4, ptr %19) #14
  ret void
}