; Function Attrs: mustprogress nofree nounwind uwtable
define void @_Z8av_hblenP8_IO_FILES0_S0_S0_S0_S0_fiP4t_bb(ptr noundef captures(none) %0, ptr noundef captures(none) %1, ptr noundef captures(none) %2, ptr noundef captures(none) %3, ptr noundef captures(none) %4, ptr noundef captures(none) %5, float noundef %6, i32 noundef %7, ptr noundef readonly captures(none) %8) local_unnamed_addr #5 {
  %10 = icmp sgt i32 %7, 3
  br i1 %10, label %.lr.ph, label %._crit_edge

.lr.ph:                                           ; preds = %9
  %11 = add nsw i32 %7, -3
  %12 = add nsw i32 %7, -4
  %13 = add nsw i32 %7, -5
  %14 = zext nneg i32 %12 to i64
  %15 = sext i32 %13 to i64
  %wide.trip.count = zext nneg i32 %11 to i64
  br label %16

16:                                               ; preds = %.lr.ph, %48
  %indvars.iv = phi i64 [ 0, %.lr.ph ], [ %indvars.iv.next, %48 ]
  %.064 = phi float [ 0.000000e+00, %.lr.ph ], [ %.1, %48 ]
  %.04463 = phi float [ 0.000000e+00, %.lr.ph ], [ %.2, %48 ]
  %.04662 = phi float [ 0.000000e+00, %.lr.ph ], [ %.147, %48 ]
  %.04861 = phi i32 [ 0, %.lr.ph ], [ %.149, %48 ]
  %.05060 = phi i32 [ 0, %.lr.ph ], [ %.252, %48 ]
  %.05359 = phi i32 [ 0, %.lr.ph ], [ %.154, %48 ]
  %17 = getelementptr inbounds nuw %struct.t_bb, ptr %8, i64 %indvars.iv
  %18 = getelementptr inbounds nuw i8, ptr %17, i64 32
  %19 = load i8, ptr %18, align 4, !tbaa !32, !range !33, !noundef !34
  %20 = trunc nuw i8 %19 to i1
  br i1 %20, label %21, label %48

21:                                               ; preds = %16
  %22 = getelementptr inbounds nuw i8, ptr %17, i64 16
  %23 = load float, ptr %22, align 4, !tbaa !35
  %24 = fpext float %23 to double
  %25 = tail call i32 (ptr, ptr, ...) @fprintf(ptr noundef %1, ptr noundef nonnull @.str.2, double noundef %24) #21
  %26 = add nsw i32 %.05359, 1
  %27 = load float, ptr %22, align 4, !tbaa !35
  %28 = fadd float %.04662, %27
  %29 = icmp samesign ult i64 %indvars.iv, %14
  br i1 %29, label %30, label %38

30:                                               ; preds = %21
  %31 = getelementptr inbounds nuw i8, ptr %17, i64 20
  %32 = load float, ptr %31, align 4, !tbaa !36
  %33 = fpext float %32 to double
  %34 = tail call i32 (ptr, ptr, ...) @fprintf(ptr noundef %3, ptr noundef nonnull @.str.2, double noundef %33) #21
  %35 = add nsw i32 %.05060, 1
  %36 = load float, ptr %31, align 4, !tbaa !36
  %37 = fadd float %.04463, %36
  br label %38

38:                                               ; preds = %30, %21
  %.151 = phi i32 [ %35, %30 ], [ %.05060, %21 ]
  %.145 = phi float [ %37, %30 ], [ %.04463, %21 ]
  %39 = icmp slt i64 %indvars.iv, %15
  br i1 %39, label %40, label %48

40:                                               ; preds = %38
  %41 = getelementptr inbounds nuw i8, ptr %17, i64 24
  %42 = load float, ptr %41, align 4, !tbaa !37
  %43 = fpext float %42 to double
  %44 = tail call i32 (ptr, ptr, ...) @fprintf(ptr noundef %5, ptr noundef nonnull @.str.2, double noundef %43) #21
  %45 = add nsw i32 %.04861, 1
  %46 = load float, ptr %41, align 4, !tbaa !37
  %47 = fadd float %.064, %46
  br label %48

48:                                               ; preds = %16, %40, %38
  %.154 = phi i32 [ %26, %40 ], [ %26, %38 ], [ %.05359, %16 ]
  %.252 = phi i32 [ %.151, %40 ], [ %.151, %38 ], [ %.05060, %16 ]
  %.149 = phi i32 [ %45, %40 ], [ %.04861, %38 ], [ %.04861, %16 ]
  %.147 = phi float [ %28, %40 ], [ %28, %38 ], [ %.04662, %16 ]
  %.2 = phi float [ %.145, %40 ], [ %.145, %38 ], [ %.04463, %16 ]
  %.1 = phi float [ %47, %40 ], [ %.064, %38 ], [ %.064, %16 ]
  %indvars.iv.next = add nuw nsw i64 %indvars.iv, 1
  %exitcond.not = icmp eq i64 %indvars.iv.next, %wide.trip.count
  br i1 %exitcond.not, label %._crit_edge.loopexit, label %16, !llvm.loop !38

._crit_edge.loopexit:                             ; preds = %48
  %49 = sitofp i32 %.154 to float
  %50 = fdiv float %.147, %49
  %51 = fpext float %50 to double
  %52 = sitofp i32 %.252 to float
  %53 = sitofp i32 %.149 to float
  br label %._crit_edge

._crit_edge:                                      ; preds = %._crit_edge.loopexit, %9
  %.050.lcssa = phi float [ 0.000000e+00, %9 ], [ %52, %._crit_edge.loopexit ]
  %.048.lcssa = phi float [ 0.000000e+00, %9 ], [ %53, %._crit_edge.loopexit ]
  %.044.lcssa = phi float [ 0.000000e+00, %9 ], [ %.2, %._crit_edge.loopexit ]
  %.0.lcssa = phi float [ 0.000000e+00, %9 ], [ %.1, %._crit_edge.loopexit ]
  %54 = phi double [ 0x7FF8000000000000, %9 ], [ %51, %._crit_edge.loopexit ]
  %55 = fpext float %6 to double
  %56 = tail call i32 (ptr, ptr, ...) @fprintf(ptr noundef %0, ptr noundef nonnull @.str.3, double noundef %55, double noundef %54) #21
  %57 = fdiv float %.044.lcssa, %.050.lcssa
  %58 = fpext float %57 to double
  %59 = tail call i32 (ptr, ptr, ...) @fprintf(ptr noundef %2, ptr noundef nonnull @.str.3, double noundef %55, double noundef %58) #21
  %60 = fdiv float %.0.lcssa, %.048.lcssa
  %61 = fpext float %60 to double
  %62 = tail call i32 (ptr, ptr, ...) @fprintf(ptr noundef %4, ptr noundef nonnull @.str.3, double noundef %55, double noundef %61) #21
  %fputc = tail call i32 @fputc(i32 10, ptr %1)
  %fputc56 = tail call i32 @fputc(i32 10, ptr %3)
  %fputc57 = tail call i32 @fputc(i32 10, ptr %5)
  ret void
}